; Function Attrs: nounwind uwtable
define hidden void @zim_DOM_Document_createProcessingInstruction(ptr nocapture noundef readonly %0, ptr noundef %1) local_unnamed_addr #0 {
  %3 = alloca i64, align 8
  %4 = alloca i64, align 8
  %5 = alloca ptr, align 8
  %6 = alloca ptr, align 8
  store i64 0, ptr %4, align 8
  store ptr null, ptr %6, align 8
  %7 = getelementptr inbounds i8, ptr %0, i64 44
  %8 = load i32, ptr %7, align 4
  %9 = call i32 (i32, ptr, ...) @zend_parse_parameters(i32 noundef %8, ptr noundef nonnull @.str.1, ptr noundef nonnull %5, ptr noundef nonnull %4, ptr noundef nonnull %6, ptr noundef nonnull %3) #10
  %10 = icmp eq i32 %9, -1
  br i1 %10, label %11, label %14

11:                                               ; preds = %2
  %12 = load ptr, ptr getelementptr inbounds (%struct._zend_executor_globals, ptr @executor_globals, i64 0, i32 50), align 8
  %13 = icmp ne ptr %12, null
  call void @llvm.assume(i1 %13)
  br label %47

14:                                               ; preds = %2
  %15 = getelementptr inbounds i8, ptr %0, i64 32
  %16 = load ptr, ptr %15, align 8
  %17 = getelementptr inbounds i8, ptr %16, i64 -24
  %18 = load ptr, ptr %17, align 8
  %19 = icmp eq ptr %18, null
  br i1 %19, label %20, label %28

20:                                               ; preds = %14
  %21 = getelementptr inbounds i8, ptr %16, i64 16
  %22 = load ptr, ptr %21, align 8
  %23 = getelementptr inbounds i8, ptr %22, i64 8
  %24 = load ptr, ptr %23, align 8
  %25 = getelementptr inbounds i8, ptr %24, i64 24
  call void (ptr, ptr, ...) @zend_throw_error(ptr noundef null, ptr noundef nonnull @.str.2, ptr noundef nonnull %25) #10
  %26 = load ptr, ptr getelementptr inbounds (%struct._zend_executor_globals, ptr @executor_globals, i64 0, i32 50), align 8
  %27 = icmp ne ptr %26, null
  call void @llvm.assume(i1 %27)
  br label %47

28:                                               ; preds = %14
  %29 = load ptr, ptr %18, align 8
  %30 = load ptr, ptr %5, align 8
  %31 = call i32 @xmlValidateName(ptr noundef %30, i32 noundef 0) #10
  %.not = icmp eq i32 %31, 0
  br i1 %.not, label %37, label %32

32:                                               ; preds = %28
  %33 = getelementptr inbounds i8, ptr %16, i64 -16
  %34 = load ptr, ptr %33, align 8
  %35 = call i32 @dom_get_strict_error(ptr noundef %34) #10
  call void @php_dom_throw_error(i32 noundef 5, i32 noundef %35) #10
  %36 = getelementptr inbounds i8, ptr %1, i64 8
  store i32 2, ptr %36, align 8
  br label %47

37:                                               ; preds = %28
  %38 = load ptr, ptr %5, align 8
  %39 = load ptr, ptr %6, align 8
  %40 = call ptr @xmlNewPI(ptr noundef %38, ptr noundef %39) #10
  %.not15 = icmp eq ptr %40, null
  br i1 %.not15, label %41, label %44

41:                                               ; preds = %37
  call void @php_dom_throw_error(i32 noundef 11, i32 noundef 1) #10
  %42 = load ptr, ptr getelementptr inbounds (%struct._zend_executor_globals, ptr @executor_globals, i64 0, i32 50), align 8
  %43 = icmp ne ptr %42, null
  call void @llvm.assume(i1 %43)
  br label %47

44:                                               ; preds = %37
  %45 = getelementptr inbounds i8, ptr %40, i64 64
  store ptr %29, ptr %45, align 8
  %46 = call zeroext i1 @php_dom_create_object(ptr noundef nonnull %40, ptr noundef %1, ptr noundef nonnull %17) #10
  br label %47

47:                                               ; preds = %44, %41, %32, %20, %11
  ret void
}